target datalayout = "e-m:e-p270:32:32-p271:32:32-p272:64:64-i64:64-i128:128-f80:128-n8:16:32:64-S128"
target triple = "x86_64-pc-linux-gnu"

; Function Attrs: nounwind uwtable
define zeroext i16 @lv_color_16_16_mix(i16 noundef zeroext %0, i16 noundef zeroext %1, i8 noundef zeroext %2) #0 {
  %4 = alloca i16, align 2
  %5 = alloca i16, align 2
  %6 = alloca i16, align 2
  %7 = alloca i8, align 1
  %8 = alloca i16, align 2
  %9 = alloca i32, align 4
  %10 = alloca i32, align 4
  %11 = alloca i32, align 4
  store i16 %0, ptr %5, align 2, !tbaa !20
  store i16 %1, ptr %6, align 2, !tbaa !20
  store i8 %2, ptr %7, align 1, !tbaa !7
  %12 = load i8, ptr %7, align 1, !tbaa !7
  %13 = zext i8 %12 to i32
  %14 = icmp eq i32 %13, 255
  br i1 %14, label %15, label %17

15:                                               ; preds = %3
  %16 = load i16, ptr %5, align 2, !tbaa !20
  store i16 %16, ptr %4, align 2
  br label %69

17:                                               ; preds = %3
  %18 = load i8, ptr %7, align 1, !tbaa !7
  %19 = zext i8 %18 to i32
  %20 = icmp eq i32 %19, 0
  br i1 %20, label %21, label %23

21:                                               ; preds = %17
  %22 = load i16, ptr %6, align 2, !tbaa !20
  store i16 %22, ptr %4, align 2
  br label %69

23:                                               ; preds = %17
  %24 = load i16, ptr %5, align 2, !tbaa !20
  %25 = zext i16 %24 to i32
  %26 = load i16, ptr %6, align 2, !tbaa !20
  %27 = zext i16 %26 to i32
  %28 = icmp eq i32 %25, %27
  br i1 %28, label %29, label %31

29:                                               ; preds = %23
  %30 = load i16, ptr %5, align 2, !tbaa !20
  store i16 %30, ptr %4, align 2
  br label %69

31:                                               ; preds = %23
  call void @llvm.lifetime.start.p0(i64 2, ptr %8) #5
  %32 = load i8, ptr %7, align 1, !tbaa !7
  %33 = zext i8 %32 to i32
  %34 = add i32 %33, 4
  %35 = lshr i32 %34, 3
  %36 = trunc i32 %35 to i8
  store i8 %36, ptr %7, align 1, !tbaa !7
  call void @llvm.lifetime.start.p0(i64 4, ptr %9) #5
  %37 = load i16, ptr %6, align 2, !tbaa !20
  %38 = zext i16 %37 to i32
  %39 = load i16, ptr %6, align 2, !tbaa !20
  %40 = zext i16 %39 to i32
  %41 = shl i32 %40, 16
  %42 = or i32 %38, %41
  %43 = and i32 %42, 132184095
  store i32 %43, ptr %9, align 4, !tbaa !9
  call void @llvm.lifetime.start.p0(i64 4, ptr %10) #5
  %44 = load i16, ptr %5, align 2, !tbaa !20
  %45 = zext i16 %44 to i32
  %46 = load i16, ptr %5, align 2, !tbaa !20
  %47 = zext i16 %46 to i32
  %48 = shl i32 %47, 16
  %49 = or i32 %45, %48
  %50 = and i32 %49, 132184095
  store i32 %50, ptr %10, align 4, !tbaa !9
  call void @llvm.lifetime.start.p0(i64 4, ptr %11) #5
  %51 = load i32, ptr %10, align 4, !tbaa !9
  %52 = load i32, ptr %9, align 4, !tbaa !9
  %53 = sub i32 %51, %52
  %54 = load i8, ptr %7, align 1, !tbaa !7
  %55 = zext i8 %54 to i32
  %56 = mul i32 %53, %55
  %57 = lshr i32 %56, 5
  %58 = load i32, ptr %9, align 4, !tbaa !9
  %59 = add i32 %57, %58
  %60 = and i32 %59, 132184095
  store i32 %60, ptr %11, align 4, !tbaa !9
  %61 = load i32, ptr %11, align 4, !tbaa !9
  %62 = lshr i32 %61, 16
  %63 = trunc i32 %62 to i16
  %64 = zext i16 %63 to i32
  %65 = load i32, ptr %11, align 4, !tbaa !9
  %66 = or i32 %64, %65
  %67 = trunc i32 %66 to i16
  store i16 %67, ptr %8, align 2, !tbaa !20
  %68 = load i16, ptr %8, align 2, !tbaa !20
  store i16 %68, ptr %4, align 2
  call void @llvm.lifetime.end.p0(i64 4, ptr %11) #5
  call void @llvm.lifetime.end.p0(i64 4, ptr %10) #5
  call void @llvm.lifetime.end.p0(i64 4, ptr %9) #5
  call void @llvm.lifetime.end.p0(i64 2, ptr %8) #5
  br label %69

69:                                               ; preds = %31, %29, %21, %15
  %70 = load i16, ptr %4, align 2
  ret i16 %70
}