; Function Attrs: mustprogress nofree norecurse nosync nounwind willreturn memory(none) uwtable
define zeroext i16 @lv_color_16_16_mix(i16 noundef zeroext %0, i16 noundef zeroext %1, i8 noundef zeroext %2) local_unnamed_addr #1 {
  %4 = zext i8 %2 to i32
  switch i8 %2, label %6 [
    i8 -1, label %25
    i8 0, label %5
  ]

5:                                                ; preds = %3
  br label %25

6:                                                ; preds = %3
  %7 = icmp eq i16 %0, %1
  br i1 %7, label %25, label %8

8:                                                ; preds = %6
  %9 = zext i16 %1 to i32
  %10 = zext i16 %0 to i32
  %11 = add nuw nsw i32 %4, 4
  %12 = lshr i32 %11, 3
  %13 = mul nuw i32 %9, 65537
  %14 = and i32 %13, 132184095
  %15 = mul nuw i32 %10, 65537
  %16 = and i32 %15, 132184095
  %17 = sub nsw i32 %16, %14
  %18 = mul i32 %17, %12
  %19 = lshr i32 %18, 5
  %20 = add nuw nsw i32 %19, %14
  %21 = and i32 %20, 132184095
  %22 = lshr i32 %21, 16
  %23 = or disjoint i32 %22, %21
  %24 = trunc i32 %23 to i16
  br label %25

25:                                               ; preds = %6, %3, %8, %5
  %.0 = phi i16 [ %1, %5 ], [ %24, %8 ], [ %0, %3 ], [ %0, %6 ]
  ret i16 %.0
}